; Function Attrs: mustprogress nofree norecurse nosync nounwind willreturn memory(argmem: read) uwtable
define noundef range(i32 0, 11) i32 @_ZNK3net10IPEndPoint17GetSockAddrFamilyEv(ptr noundef nonnull readonly align 8 captures(none) dereferenceable(26) %0) local_unnamed_addr #4 align 2 {
  %2 = getelementptr inbounds nuw i8, ptr %0, i64 8
  %3 = load ptr, ptr %2, align 8, !tbaa !15
  %4 = load ptr, ptr %0, align 8, !tbaa !16
  %5 = ptrtoint ptr %3 to i64
  %6 = ptrtoint ptr %4 to i64
  %7 = sub i64 %5, %6
  %switch.selectcmp = icmp eq i64 %7, 16
  %switch.select = select i1 %switch.selectcmp, i32 10, i32 0
  %switch.selectcmp1 = icmp eq i64 %7, 4
  %switch.select2 = select i1 %switch.selectcmp1, i32 2, i32 %switch.select
  ret i32 %switch.select2
}